; ModuleID = '38/1224.c'
source_filename = "38/1224.c"
target datalayout = "e-m:e-p270:32:32-p271:32:32-p272:64:64-i64:64-f80:128-n8:16:32:64-S128"
target triple = "x86_64-pc-linux-gnu"

@.str = private unnamed_addr constant [3 x i8] c"%d\00", align 1
@.str.1 = private unnamed_addr constant [4 x i8] c"%lf\00", align 1
@.str.2 = private unnamed_addr constant [7 x i8] c"%.5lf\0A\00", align 1

; Function Attrs: noinline nounwind uwtable
define dso_local i32 @main(i32 %0, i8** %1) #0 {
  %3 = alloca i32, align 4
  %4 = alloca i32, align 4
  %5 = alloca i8**, align 8
  %6 = alloca i32, align 4
  %7 = alloca i32, align 4
  %8 = alloca i32, align 4
  %9 = alloca i32, align 4
  %10 = alloca double*, align 8
  %11 = alloca double, align 8
  %12 = alloca double, align 8
  store i32 0, i32* %3, align 4
  store i32 %0, i32* %4, align 4
  store i8** %1, i8*** %5, align 8
  store i32 0, i32* %6, align 4
  store i32 0, i32* %9, align 4
  store double 0.000000e+00, double* %11, align 8
  store double 0.000000e+00, double* %12, align 8
  %13 = call i32 (i8*, ...) @__isoc99_scanf(i8* getelementptr inbounds ([3 x i8], [3 x i8]* @.str, i64 0, i64 0), i32* %6)
  store i32 0, i32* %7, align 4
  br label %14

14:                                               ; preds = %85, %2
  %15 = load i32, i32* %7, align 4
  %16 = load i32, i32* %6, align 4
  %17 = icmp slt i32 %15, %16
  br i1 %17, label %18, label %88

18:                                               ; preds = %14
  %19 = call i32 (i8*, ...) @__isoc99_scanf(i8* getelementptr inbounds ([3 x i8], [3 x i8]* @.str, i64 0, i64 0), i32* %9)
  %20 = load i32, i32* %9, align 4
  %21 = sext i32 %20 to i64
  %22 = mul i64 %21, 8
  %23 = call noalias i8* @malloc(i64 %22) #3
  %24 = bitcast i8* %23 to double*
  store double* %24, double** %10, align 8
  store i32 0, i32* %8, align 4
  br label %25

25:                                               ; preds = %42, %18
  %26 = load i32, i32* %8, align 4
  %27 = load i32, i32* %9, align 4
  %28 = icmp slt i32 %26, %27
  br i1 %28, label %29, label %45

29:                                               ; preds = %25
  %30 = load double*, double** %10, align 8
  %31 = load i32, i32* %8, align 4
  %32 = sext i32 %31 to i64
  %33 = getelementptr inbounds double, double* %30, i64 %32
  %34 = call i32 (i8*, ...) @__isoc99_scanf(i8* getelementptr inbounds ([4 x i8], [4 x i8]* @.str.1, i64 0, i64 0), double* %33)
  %35 = load double*, double** %10, align 8
  %36 = load i32, i32* %8, align 4
  %37 = sext i32 %36 to i64
  %38 = getelementptr inbounds double, double* %35, i64 %37
  %39 = load double, double* %38, align 8
  %40 = load double, double* %11, align 8
  %41 = fadd double %40, %39
  store double %41, double* %11, align 8
  br label %42

42:                                               ; preds = %29
  %43 = load i32, i32* %8, align 4
  %44 = add nsw i32 %43, 1
  store i32 %44, i32* %8, align 4
  br label %25

45:                                               ; preds = %25
  %46 = load double, double* %11, align 8
  %47 = load i32, i32* %9, align 4
  %48 = sitofp i32 %47 to double
  %49 = fdiv double %46, %48
  store double %49, double* %11, align 8
  store i32 0, i32* %8, align 4
  br label %50

50:                                               ; preds = %72, %45
  %51 = load i32, i32* %8, align 4
  %52 = load i32, i32* %9, align 4
  %53 = icmp slt i32 %51, %52
  br i1 %53, label %54, label %75

54:                                               ; preds = %50
  %55 = load double*, double** %10, align 8
  %56 = load i32, i32* %8, align 4
  %57 = sext i32 %56 to i64
  %58 = getelementptr inbounds double, double* %55, i64 %57
  %59 = load double, double* %58, align 8
  %60 = load double, double* %11, align 8
  %61 = fsub double %59, %60
  %62 = load double*, double** %10, align 8
  %63 = load i32, i32* %8, align 4
  %64 = sext i32 %63 to i64
  %65 = getelementptr inbounds double, double* %62, i64 %64
  %66 = load double, double* %65, align 8
  %67 = load double, double* %11, align 8
  %68 = fsub double %66, %67
  %69 = fmul double %61, %68
  %70 = load double, double* %12, align 8
  %71 = fadd double %70, %69
  store double %71, double* %12, align 8
  br label %72

72:                                               ; preds = %54
  %73 = load i32, i32* %8, align 4
  %74 = add nsw i32 %73, 1
  store i32 %74, i32* %8, align 4
  br label %50

75:                                               ; preds = %50
  %76 = load double, double* %12, align 8
  %77 = load i32, i32* %9, align 4
  %78 = sitofp i32 %77 to double
  %79 = fdiv double %76, %78
  %80 = call double @sqrt(double %79) #3
  store double %80, double* %12, align 8
  %81 = load double, double* %12, align 8
  %82 = call i32 (i8*, ...) @printf(i8* getelementptr inbounds ([7 x i8], [7 x i8]* @.str.2, i64 0, i64 0), double %81)
  store double 0.000000e+00, double* %12, align 8
  store double 0.000000e+00, double* %11, align 8
  %83 = load double*, double** %10, align 8
  %84 = bitcast double* %83 to i8*
  call void @free(i8* %84) #3
  br label %85

85:                                               ; preds = %75
  %86 = load i32, i32* %7, align 4
  %87 = add nsw i32 %86, 1
  store i32 %87, i32* %7, align 4
  br label %14

88:                                               ; preds = %14
  ret i32 0
}

declare dso_local i32 @__isoc99_scanf(i8*, ...) #1

; Function Attrs: nounwind
declare dso_local noalias i8* @malloc(i64) #2

; Function Attrs: nounwind
declare dso_local double @sqrt(double) #2

declare dso_local i32 @printf(i8*, ...) #1

; Function Attrs: nounwind
declare dso_local void @free(i8*) #2


!llvm.module.flags = !{!0}
!llvm.ident = !{!1}

!0 = !{i32 1, !"wchar_size", i32 4}
!1 = !{!"clang version 10.0.0-4ubuntu1 "}
